Certificate:
    Data:
        Version: 3 (0x2)
        Serial Number:
            04:77:15:7d:dc:d6:b7:c1:e9:25:33:01:44:d4:49:4e
    Signature Algorithm: sha256WithRSAEncryption
        Issuer: C=GB, ST=Greater Manchester, L=Salford, O=COMODO CA Limited, CN=COMODO RSA Domain Validation Secure Server CA
        Validity
            Not Before: May  3 00:00:00 2017 GMT
            Not After : Mar  9 23:59:59 2019 GMT
        Subject: OU=Domain Control Validated, OU=COMODO SSL Wildcard, CN=*.nibss-plc.com.ng
        Subject Public Key Info:
            Public Key Algorithm: rsaEncryption
                Public-Key: (2048 bit)
                Modulus:
                    00:f2:04:aa:27:19:c7:ff:5c:0f:99:24:0c:ba:f6:
                    36:43:ef:58:91:7a:ed:85:c1:07:62:77:58:a7:52:
                    cb:e8:ec:98:5f:d5:1a:dd:6a:18:17:fb:f1:2f:0e:
                    2f:2b:8f:fc:84:bb:1c:b6:49:18:d3:d0:62:02:43:
                    02:7b:00:d3:3a:3f:87:7a:e2:40:0c:b4:e2:94:fc:
                    db:e5:4a:dc:98:09:04:41:79:e5:e1:ac:ce:e2:8d:
                    9f:27:25:f9:81:03:4c:b9:2d:26:f6:9c:ae:16:4e:
                    f0:55:a6:c7:3d:af:06:2d:31:1f:c9:82:bd:5e:6f:
                    60:13:4e:6e:4a:aa:d0:cf:c8:fb:31:9d:95:d0:ee:
                    d0:13:e4:5c:54:c8:de:8f:7b:52:db:4d:65:01:20:
                    fd:1a:be:c9:ef:ab:43:a8:bb:ba:af:7f:8e:4e:99:
                    92:d9:f4:5b:cf:a0:18:a9:b8:c7:dc:82:d7:94:60:
                    71:58:94:3d:aa:89:86:79:b2:ab:3a:8f:d9:31:ea:
                    a8:61:d2:d4:4a:2a:12:aa:5d:aa:10:94:7d:85:0f:
                    61:90:be:40:61:a9:46:f2:f0:88:f1:a2:00:dc:f2:
                    ed:0d:73:a6:6a:e3:ce:1e:41:a9:f5:4b:95:95:82:
                    05:77:40:66:9e:b9:e2:9c:dd:ec:78:81:ed:49:50:
                    8f:73
                Exponent: 65537 (0x10001)
        X509v3 extensions:
            X509v3 Authority Key Identifier:
                keyid:90:AF:6A:3A:94:5A:0B:D8:90:EA:12:56:73:DF:43:B4:3A:28:DA:E7

            X509v3 Subject Key Identifier:
                7D:96:FA:5E:9C:D3:45:E9:0F:12:B2:D8:6D:CE:10:FD:54:1E:F7:BE
            X509v3 Key Usage: critical
                Digital Signature, Key Encipherment
            X509v3 Basic Constraints: critical
                CA:FALSE
            X509v3 Extended Key Usage:
                TLS Web Server Authentication, TLS Web Client Authentication
            X509v3 Certificate Policies:
                Policy: 1.3.6.1.4.1.6449.1.2.2.7
                  CPS: https://secure.comodo.com/CPS
                Policy: 2.23.140.1.2.1

            X509v3 CRL Distribution Points:

                Full Name:
                  URI:http://crl.comodoca.com/COMODORSADomainValidationSecureServerCA.crl

            Authority Information Access:
                CA Issuers - URI:http://crt.comodoca.com/COMODORSADomainValidationSecureServerCA.crt
                OCSP - URI:http://ocsp.comodoca.com

            X509v3 Subject Alternative Name:
                DNS:*.nibss-plc.com.ng, DNS:nibss-plc.com.ng
    Signature Algorithm: sha256WithRSAEncryption
         86:2e:b5:33:42:8e:a3:f0:b6:af:3c:2d:de:ac:d4:93:de:9d:
         d3:bd:eb:12:84:7e:61:54:14:6d:1b:db:a8:ee:9e:44:21:f8:
         b4:fd:80:d0:02:4c:b7:7f:38:d8:51:a1:15:8e:f1:7d:22:fb:
         55:73:51:66:57:7f:4d:56:a8:c6:e6:5a:9e:e5:2f:e5:00:60:
         94:d9:40:e3:ce:c7:51:19:c7:d8:20:91:16:8d:9a:d1:2b:c5:
         b9:b3:1a:0f:a6:fd:3e:73:48:f1:57:7c:70:29:33:84:1a:71:
         6d:47:a9:50:51:75:b4:a4:72:0c:78:e2:d1:75:16:5b:71:85:
         9d:09:4d:d1:0a:4a:70:c4:3f:ea:9f:31:86:bf:2d:d8:5a:32:
         a2:9d:ed:a0:20:ea:4d:b3:a5:a1:ed:1a:88:da:fb:ee:2b:c6:
         5b:fb:01:0d:7f:f7:b3:1f:3a:3f:cc:c7:60:09:c8:b2:82:6e:
         b9:32:dc:44:3a:f8:9e:64:ca:7d:ed:be:bd:1c:6b:b1:b9:ae:
         84:e4:a3:f7:27:26:92:70:2b:1a:f5:f0:ca:60:10:fc:0c:99:
         bf:f6:85:64:62:b9:e2:73:98:83:a8:39:a1:12:59:54:8e:20:
         8e:9b:50:30:8b:0a:33:4a:1f:8c:5d:f0:c3:81:a4:01:d5:9c:
         dc:ea:84:fb
-----BEGIN CERTIFICATE-----
MIIFXDCCBESgAwIBAgIQBHcVfdzWt8HpJTMBRNRJTjANBgkqhkiG9w0BAQsFADCB
kDELMAkGA1UEBhMCR0IxGzAZBgNVBAgTEkdyZWF0ZXIgTWFuY2hlc3RlcjEQMA4G
A1UEBxMHU2FsZm9yZDEaMBgGA1UEChMRQ09NT0RPIENBIExpbWl0ZWQxNjA0BgNV
BAMTLUNPTU9ETyBSU0EgRG9tYWluIFZhbGlkYXRpb24gU2VjdXJlIFNlcnZlciBD
QTAeFw0xNzA1MDMwMDAwMDBaFw0xOTAzMDkyMzU5NTlaMF4xITAfBgNVBAsTGERv
bWFpbiBDb250cm9sIFZhbGlkYXRlZDEcMBoGA1UECxMTQ09NT0RPIFNTTCBXaWxk
Y2FyZDEbMBkGA1UEAwwSKi5uaWJzcy1wbGMuY29tLm5nMIIBIjANBgkqhkiG9w0B
AQEFAAOCAQ8AMIIBCgKCAQEA8gSqJxnH/1wPmSQMuvY2Q+9YkXrthcEHYndYp1LL
6OyYX9Ua3WoYF/vxLw4vK4/8hLsctkkY09BiAkMCewDTOj+HeuJADLTilPzb5Urc
mAkEQXnl4azO4o2fJyX5gQNMuS0m9pyuFk7wVabHPa8GLTEfyYK9Xm9gE05uSqrQ
z8j7MZ2V0O7QE+RcVMjej3tS201lASD9Gr7J76tDqLu6r3+OTpmS2fRbz6AYqbjH
3ILXlGBxWJQ9qomGebKrOo/ZMeqoYdLUSioSql2qEJR9hQ9hkL5AYalG8vCI8aIA
3PLtDXOmauPOHkGp9UuVlYIFd0BmnrninN3seIHtSVCPcwIDAQABo4IB4TCCAd0w
HwYDVR0jBBgwFoAUkK9qOpRaC9iQ6hJWc99DtDoo2ucwHQYDVR0OBBYEFH2W+l6c
00XpDxKy2G3OEP1UHve+MA4GA1UdDwEB/wQEAwIFoDAMBgNVHRMBAf8EAjAAMB0G
A1UdJQQWMBQGCCsGAQUFBwMBBggrBgEFBQcDAjBPBgNVHSAESDBGMDoGCysGAQQB
sjEBAgIHMCswKQYIKwYBBQUHAgEWHWh0dHBzOi8vc2VjdXJlLmNvbW9kby5jb20v
Q1BTMAgGBmeBDAECATBUBgNVHR8ETTBLMEmgR6BFhkNodHRwOi8vY3JsLmNvbW9k
b2NhLmNvbS9DT01PRE9SU0FEb21haW5WYWxpZGF0aW9uU2VjdXJlU2VydmVyQ0Eu
Y3JsMIGFBggrBgEFBQcBAQR5MHcwTwYIKwYBBQUHMAKGQ2h0dHA6Ly9jcnQuY29t
b2RvY2EuY29tL0NPTU9ET1JTQURvbWFpblZhbGlkYXRpb25TZWN1cmVTZXJ2ZXJD
QS5jcnQwJAYIKwYBBQUHMAGGGGh0dHA6Ly9vY3NwLmNvbW9kb2NhLmNvbTAvBgNV
HREEKDAmghIqLm5pYnNzLXBsYy5jb20ubmeCEG5pYnNzLXBsYy5jb20ubmcwDQYJ
KoZIhvcNAQELBQADggEBAIYutTNCjqPwtq88Ld6s1JPendO96xKEfmFUFG0b26ju
nkQh+LT9gNACTLd/ONhRoRWO8X0i+1VzUWZXf01WqMbmWp7lL+UAYJTZQOPOx1EZ
x9ggkRaNmtErxbmzGg+m/T5zSPFXfHApM4QacW1HqVBRdbSkcgx44tF1FltxhZ0J
TdEKSnDEP+qfMYa/LdhaMqKd7aAg6k2zpaHtGoja++4rxlv7AQ1/97MfOj/Mx2AJ
yLKCbrky3EQ6+J5kyn3tvr0ca7G5roTko/cnJpJwKxr18MpgEPwMmb/2hWRiueJz
mIOoOaESWVSOII6bUDCLCjNKH4xd8MOBpAHVnNzqhPs=
-----END CERTIFICATE-----
